target datalayout = "e-m:e-p270:32:32-p271:32:32-p272:64:64-i64:64-i128:128-f80:128-n8:16:32:64-S128"
target triple = "x86_64-pc-linux-gnu"

%struct.CLI_LZMA = type { %struct.CLzmaDec, [5 x i8], i32, i32, i32, i32, i64, ptr, ptr, i64, i64 }
%struct.CLzmaDec = type { %struct._CLzmaProps, ptr, ptr, ptr, i32, i32, i64, i64, i32, i32, i32, [4 x i32], i32, i32, i32, i32, i32, [20 x i8] }
%struct._CLzmaProps = type { i32, i32, i32, i32 }

@__const.upx_inflatelzma.magic = private unnamed_addr constant [3 x i32] [i32 2838, i32 2846, i32 0], align 4

; Function Attrs: nounwind uwtable
define i32 @upx_inflatelzma(ptr noundef %0, i32 noundef %1, ptr noundef %2, ptr noundef %3, i32 noundef %4, i32 noundef %5, i32 noundef %6, i32 noundef %7) #0 {
  %9 = alloca i32, align 4
  %10 = alloca ptr, align 8
  %11 = alloca i32, align 4
  %12 = alloca ptr, align 8
  %13 = alloca ptr, align 8
  %14 = alloca i32, align 4
  %15 = alloca i32, align 4
  %16 = alloca i32, align 4
  %17 = alloca i32, align 4
  %18 = alloca %struct.CLI_LZMA, align 8
  %19 = alloca [3 x i32], align 4
  %20 = alloca [5 x i8], align 1
  %21 = alloca i8, align 1
  %22 = alloca i8, align 1
  %23 = alloca i8, align 1
  %24 = alloca i32, align 4
  store ptr %0, ptr %10, align 8, !tbaa !3
  store i32 %1, ptr %11, align 4, !tbaa !8
  store ptr %2, ptr %12, align 8, !tbaa !3
  store ptr %3, ptr %13, align 8, !tbaa !10
  store i32 %4, ptr %14, align 4, !tbaa !8
  store i32 %5, ptr %15, align 4, !tbaa !8
  store i32 %6, ptr %16, align 4, !tbaa !8
  store i32 %7, ptr %17, align 4, !tbaa !8
  call void @llvm.lifetime.start.p0(i64 200, ptr %18) #6
  call void @llvm.lifetime.start.p0(i64 12, ptr %19) #6
  call void @llvm.memcpy.p0.p0.i64(ptr align 4 %19, ptr align 4 @__const.upx_inflatelzma.magic, i64 12, i1 false)
  call void @llvm.lifetime.start.p0(i64 5, ptr %20) #6
  call void @llvm.memset.p0.i64(ptr align 8 %18, i8 0, i64 200, i1 false)
  %25 = load ptr, ptr %13, align 8, !tbaa !10
  %26 = load i32, ptr %25, align 4, !tbaa !8
  %27 = getelementptr inbounds [5 x i8], ptr %20, i64 0, i64 0
  %28 = getelementptr inbounds i8, ptr %27, i64 1
  store i32 %26, ptr %28, align 1, !tbaa !12
  call void @llvm.lifetime.start.p0(i64 1, ptr %21) #6
  %29 = load i32, ptr %17, align 4, !tbaa !8
  %30 = and i32 %29, 255
  %31 = trunc i32 %30 to i8
  store i8 %31, ptr %21, align 1, !tbaa !12
  call void @llvm.lifetime.start.p0(i64 1, ptr %22) #6
  %32 = load i32, ptr %17, align 4, !tbaa !8
  %33 = lshr i32 %32, 8
  %34 = and i32 %33, 255
  %35 = trunc i32 %34 to i8
  store i8 %35, ptr %22, align 1, !tbaa !12
  call void @llvm.lifetime.start.p0(i64 1, ptr %23) #6
  %36 = load i32, ptr %17, align 4, !tbaa !8
  %37 = lshr i32 %36, 16
  %38 = and i32 %37, 255
  %39 = trunc i32 %38 to i8
  store i8 %39, ptr %23, align 1, !tbaa !12
  %40 = load i8, ptr %21, align 1, !tbaa !12
  %41 = zext i8 %40 to i32
  %42 = icmp sge i32 %41, 9
  br i1 %42, label %51, label %43

43:                                               ; preds = %8
  %44 = load i8, ptr %22, align 1, !tbaa !12
  %45 = zext i8 %44 to i32
  %46 = icmp sge i32 %45, 5
  br i1 %46, label %51, label %47

47:                                               ; preds = %43
  %48 = load i8, ptr %23, align 1, !tbaa !12
  %49 = zext i8 %48 to i32
  %50 = icmp sge i32 %49, 5
  br i1 %50, label %51, label %52

51:                                               ; preds = %47, %43, %8
  store i32 -1, ptr %9, align 4
  store i32 1, ptr %24, align 4
  br label %102

52:                                               ; preds = %47
  %53 = load i8, ptr %21, align 1, !tbaa !12
  %54 = zext i8 %53 to i32
  %55 = load i8, ptr %23, align 1, !tbaa !12
  %56 = zext i8 %55 to i32
  %57 = mul nsw i32 5, %56
  %58 = load i8, ptr %22, align 1, !tbaa !12
  %59 = zext i8 %58 to i32
  %60 = add nsw i32 %57, %59
  %61 = mul nsw i32 9, %60
  %62 = add nsw i32 %54, %61
  %63 = trunc i32 %62 to i8
  %64 = getelementptr inbounds [5 x i8], ptr %20, i64 0, i64 0
  store i8 %63, ptr %64, align 1, !tbaa !12
  %65 = getelementptr inbounds [5 x i8], ptr %20, i64 0, i64 0
  %66 = getelementptr inbounds nuw %struct.CLI_LZMA, ptr %18, i32 0, i32 7
  store ptr %65, ptr %66, align 8, !tbaa !13
  %67 = getelementptr inbounds nuw %struct.CLI_LZMA, ptr %18, i32 0, i32 9
  store i64 5, ptr %67, align 8, !tbaa !19
  %68 = load ptr, ptr %13, align 8, !tbaa !10
  %69 = load i32, ptr %68, align 4, !tbaa !8
  %70 = zext i32 %69 to i64
  %71 = call i32 @cli_LzmaInit(ptr noundef %18, i64 noundef %70)
  %72 = icmp ne i32 %71, 0
  br i1 %72, label %73, label %74

73:                                               ; preds = %52
  store i32 0, ptr %9, align 4
  store i32 1, ptr %24, align 4
  br label %102

74:                                               ; preds = %52
  %75 = load i32, ptr %11, align 4, !tbaa !8
  %76 = zext i32 %75 to i64
  %77 = getelementptr inbounds nuw %struct.CLI_LZMA, ptr %18, i32 0, i32 9
  store i64 %76, ptr %77, align 8, !tbaa !19
  %78 = load ptr, ptr %13, align 8, !tbaa !10
  %79 = load i32, ptr %78, align 4, !tbaa !8
  %80 = zext i32 %79 to i64
  %81 = getelementptr inbounds nuw %struct.CLI_LZMA, ptr %18, i32 0, i32 10
  store i64 %80, ptr %81, align 8, !tbaa !20
  %82 = load ptr, ptr %10, align 8, !tbaa !3
  %83 = getelementptr inbounds i8, ptr %82, i64 2
  %84 = getelementptr inbounds nuw %struct.CLI_LZMA, ptr %18, i32 0, i32 7
  store ptr %83, ptr %84, align 8, !tbaa !13
  %85 = load ptr, ptr %12, align 8, !tbaa !3
  %86 = getelementptr inbounds nuw %struct.CLI_LZMA, ptr %18, i32 0, i32 8
  store ptr %85, ptr %86, align 8, !tbaa !21
  %87 = call i32 @cli_LzmaDecode(ptr noundef %18)
  %88 = icmp eq i32 %87, 1
  br i1 %88, label %89, label %90

89:                                               ; preds = %74
  call void @cli_LzmaShutdown(ptr noundef %18)
  store i32 -1, ptr %9, align 4
  store i32 1, ptr %24, align 4
  br label %102

90:                                               ; preds = %74
  call void @cli_LzmaShutdown(ptr noundef %18)
  %91 = load ptr, ptr %10, align 8, !tbaa !3
  %92 = load i32, ptr %11, align 4, !tbaa !8
  %93 = load ptr, ptr %12, align 8, !tbaa !3
  %94 = load ptr, ptr %13, align 8, !tbaa !10
  %95 = load i32, ptr %16, align 4, !tbaa !8
  %96 = load i32, ptr %14, align 4, !tbaa !8
  %97 = load i32, ptr %15, align 4, !tbaa !8
  %98 = getelementptr inbounds [3 x i32], ptr %19, i64 0, i64 0
  %99 = load ptr, ptr %13, align 8, !tbaa !10
  %100 = load i32, ptr %99, align 4, !tbaa !8
  %101 = call i32 @pefromupx(ptr noundef %91, i32 noundef %92, ptr noundef %93, ptr noundef %94, i32 noundef %95, i32 noundef %96, i32 noundef %97, ptr noundef %98, i32 noundef %100)
  store i32 %101, ptr %9, align 4
  store i32 1, ptr %24, align 4
  br label %102

102:                                              ; preds = %90, %89, %73, %51
  call void @llvm.lifetime.end.p0(i64 1, ptr %23) #6
  call void @llvm.lifetime.end.p0(i64 1, ptr %22) #6
  call void @llvm.lifetime.end.p0(i64 1, ptr %21) #6
  call void @llvm.lifetime.end.p0(i64 5, ptr %20) #6
  call void @llvm.lifetime.end.p0(i64 12, ptr %19) #6
  call void @llvm.lifetime.end.p0(i64 200, ptr %18) #6
  %103 = load i32, ptr %9, align 4
  ret i32 %103
}