; Function Attrs: nounwind uwtable
define range(i32 -1, 2) i32 @upx_inflatelzma(ptr noundef %0, i32 noundef %1, ptr noundef %2, ptr noundef captures(none) %3, i32 noundef %4, i32 noundef %5, i32 noundef %6, i32 noundef %7) local_unnamed_addr #0 {
  %9 = alloca %struct.CLI_LZMA, align 8
  %10 = alloca [5 x i8], align 1
  call void @llvm.lifetime.start.p0(i64 200, ptr nonnull %9) #8
  call void @llvm.lifetime.start.p0(i64 5, ptr nonnull %10) #8
  call void @llvm.memset.p0.i64(ptr noundef nonnull align 8 dereferenceable(200) %9, i8 0, i64 200, i1 false)
  %11 = load i32, ptr %3, align 4, !tbaa !6
  %12 = getelementptr inbounds nuw i8, ptr %10, i64 1
  store i32 %11, ptr %12, align 1, !tbaa !3
  %13 = and i32 %7, 255
  %14 = icmp samesign ugt i32 %13, 8
  %15 = and i32 %7, 65280
  %16 = icmp samesign ugt i32 %15, 1024
  %or.cond = select i1 %14, i1 true, i1 %16
  %17 = and i32 %7, 16711680
  %18 = icmp samesign ugt i32 %17, 262144
  %or.cond5 = select i1 %or.cond, i1 true, i1 %18
  br i1 %or.cond5, label %43, label %19

19:                                               ; preds = %8
  %20 = lshr i32 %7, 16
  %21 = lshr i32 %7, 8
  %22 = mul nuw nsw i32 %20, 5
  %23 = add nuw nsw i32 %22, %21
  %24 = mul nuw nsw i32 %23, 9
  %25 = add i32 %24, %7
  %26 = trunc i32 %25 to i8
  store i8 %26, ptr %10, align 1, !tbaa !3
  %27 = getelementptr inbounds nuw i8, ptr %9, i64 168
  store ptr %10, ptr %27, align 8, !tbaa !8
  %28 = getelementptr inbounds nuw i8, ptr %9, i64 184
  store i64 5, ptr %28, align 8, !tbaa !16
  %29 = zext i32 %11 to i64
  %30 = call i32 @cli_LzmaInit(ptr noundef nonnull %9, i64 noundef %29) #8
  %.not = icmp eq i32 %30, 0
  br i1 %.not, label %31, label %43

31:                                               ; preds = %19
  %32 = zext i32 %1 to i64
  store i64 %32, ptr %28, align 8, !tbaa !16
  %33 = load i32, ptr %3, align 4, !tbaa !6
  %34 = zext i32 %33 to i64
  %35 = getelementptr inbounds nuw i8, ptr %9, i64 192
  store i64 %34, ptr %35, align 8, !tbaa !17
  %36 = getelementptr inbounds nuw i8, ptr %0, i64 2
  store ptr %36, ptr %27, align 8, !tbaa !8
  %37 = getelementptr inbounds nuw i8, ptr %9, i64 176
  store ptr %2, ptr %37, align 8, !tbaa !18
  %38 = call i32 @cli_LzmaDecode(ptr noundef nonnull %9) #8
  %39 = icmp eq i32 %38, 1
  call void @cli_LzmaShutdown(ptr noundef nonnull %9) #8
  br i1 %39, label %43, label %40

40:                                               ; preds = %31
  %41 = load i32, ptr %3, align 4, !tbaa !6
  %42 = call fastcc i32 @pefromupx(ptr noundef %0, i32 noundef %1, ptr noundef %2, ptr noundef nonnull %3, i32 noundef %6, i32 noundef %4, i32 noundef %5, ptr noundef @__const.upx_inflatelzma.magic, i32 noundef %41)
  br label %43

43:                                               ; preds = %31, %19, %8, %40
  %.0 = phi i32 [ %42, %40 ], [ -1, %8 ], [ 0, %19 ], [ -1, %31 ]
  call void @llvm.lifetime.end.p0(i64 5, ptr nonnull %10) #8
  call void @llvm.lifetime.end.p0(i64 200, ptr nonnull %9) #8
  ret i32 %.0
}